
expmod.o:     file format elf32-littlearm


Disassembly of section .text:

00000000 <lolrofl>:
   0:	e92d4037 	push	{r0, r1, r2, r4, r5, lr}
   4:	e28d4008 	add	r4, sp, #8
   8:	e59f508c 	ldr	r5, [pc, #140]	; 9c <lolrofl+0x9c>
   c:	e3a0107b 	mov	r1, #123	; 0x7b
  10:	e5240004 	str	r0, [r4, #-4]!
  14:	e1a00004 	mov	r0, r4
  18:	e12fff35 	blx	r5
  1c:	e1a00004 	mov	r0, r4
  20:	e3a0107b 	mov	r1, #123	; 0x7b
  24:	e12fff35 	blx	r5
  28:	e1a00004 	mov	r0, r4
  2c:	e3a0107b 	mov	r1, #123	; 0x7b
  30:	e12fff35 	blx	r5
  34:	e1a00004 	mov	r0, r4
  38:	e3a0107b 	mov	r1, #123	; 0x7b
  3c:	e12fff35 	blx	r5
  40:	e1a00004 	mov	r0, r4
  44:	e3a0107b 	mov	r1, #123	; 0x7b
  48:	e12fff35 	blx	r5
  4c:	e1a00004 	mov	r0, r4
  50:	e3a0107b 	mov	r1, #123	; 0x7b
  54:	e12fff35 	blx	r5
  58:	e1a00004 	mov	r0, r4
  5c:	e3a0107b 	mov	r1, #123	; 0x7b
  60:	e12fff35 	blx	r5
  64:	e1a00004 	mov	r0, r4
  68:	e3a0107b 	mov	r1, #123	; 0x7b
  6c:	e12fff35 	blx	r5
  70:	e1a00004 	mov	r0, r4
  74:	e3a0107b 	mov	r1, #123	; 0x7b
  78:	e12fff35 	blx	r5
  7c:	e1a00004 	mov	r0, r4
  80:	e3a0107b 	mov	r1, #123	; 0x7b
  84:	e12fff35 	blx	r5
  88:	e1a00004 	mov	r0, r4
  8c:	e3a0107b 	mov	r1, #123	; 0x7b
  90:	e12fff35 	blx	r5
  94:	e28dd00c 	add	sp, sp, #12
  98:	e8bd8030 	pop	{r4, r5, pc}
  9c:	c0360794 	.word	0xc0360794

000000a0 <init_module>:
  a0:	e92d4008 	push	{r3, lr}
  a4:	e3a00000 	mov	r0, #0
  a8:	ebfffffe 	bl	0 <lolrofl>
  ac:	e3a00000 	mov	r0, #0
  b0:	e8bd8008 	pop	{r3, pc}

000000b4 <cleanup_module>:
  b4:	e12fff1e 	bx	lr
